target datalayout = "e-m:e-p270:32:32-p271:32:32-p272:64:64-i64:64-i128:128-f80:128-n8:16:32:64-S128"
target triple = "x86_64-pc-linux-gnu"

@_ZZN6google8protobuf8internal17DefaultLogHandlerENS0_8LogLevelEPKciRKNSt7__cxx1112basic_stringIcSt11char_traitsIcESaIcEEEE11level_names = internal global [4 x ptr] [ptr @.str.9, ptr @.str.10, ptr @.str.11, ptr @.str.12], align 16
@stderr = external global ptr, align 8
@.str.13 = private unnamed_addr constant [27 x i8] c"[libprotobuf %s %s:%d] %s\0A\00", align 1

; Function Attrs: mustprogress uwtable
define void @_ZN6google8protobuf8internal17DefaultLogHandlerENS0_8LogLevelEPKciRKNSt7__cxx1112basic_stringIcSt11char_traitsIcESaIcEEE(i32 noundef %0, ptr noundef %1, i32 noundef %2, ptr noundef nonnull align 8 dereferenceable(32) %3) #4 {
  %5 = alloca i32, align 4
  %6 = alloca ptr, align 8
  %7 = alloca i32, align 4
  %8 = alloca ptr, align 8
  store i32 %0, ptr %5, align 4
  store ptr %1, ptr %6, align 8
  store i32 %2, ptr %7, align 4
  store ptr %3, ptr %8, align 8
  %9 = load i32, ptr %5, align 4
  %10 = icmp slt i32 %9, 0
  br i1 %10, label %11, label %12

11:                                               ; preds = %4
  br label %25

12:                                               ; preds = %4
  %13 = load ptr, ptr @stderr, align 8
  %14 = load i32, ptr %5, align 4
  %15 = zext i32 %14 to i64
  %16 = getelementptr inbounds [4 x ptr], ptr @_ZZN6google8protobuf8internal17DefaultLogHandlerENS0_8LogLevelEPKciRKNSt7__cxx1112basic_stringIcSt11char_traitsIcESaIcEEEE11level_names, i64 0, i64 %15
  %17 = load ptr, ptr %16, align 8
  %18 = load ptr, ptr %6, align 8
  %19 = load i32, ptr %7, align 4
  %20 = load ptr, ptr %8, align 8
  %21 = call noundef ptr @_ZNKSt7__cxx1112basic_stringIcSt11char_traitsIcESaIcEE5c_strEv(ptr noundef nonnull align 8 dereferenceable(32) %20) #3
  %22 = call i32 (ptr, ptr, ...) @fprintf(ptr noundef %13, ptr noundef @.str.13, ptr noundef %17, ptr noundef %18, i32 noundef %19, ptr noundef %21) #3
  %23 = load ptr, ptr @stderr, align 8
  %24 = call i32 @fflush(ptr noundef %23)
  br label %25

25:                                               ; preds = %12, %11
  ret void
}