; Function Attrs: mustprogress nounwind uwtable
define void @_ZN6google8protobuf8internal17DefaultLogHandlerENS0_8LogLevelEPKciRKNSt7__cxx1112basic_stringIcSt11char_traitsIcESaIcEEE(i32 noundef %0, ptr noundef %1, i32 noundef %2, ptr noundef nonnull align 8 dereferenceable(32) %3) #5 {
  %5 = icmp slt i32 %0, 0
  br i1 %5, label %15, label %6

6:                                                ; preds = %4
  %7 = load ptr, ptr @stderr, align 8
  %8 = zext nneg i32 %0 to i64
  %9 = getelementptr inbounds [4 x ptr], ptr @_ZZN6google8protobuf8internal17DefaultLogHandlerENS0_8LogLevelEPKciRKNSt7__cxx1112basic_stringIcSt11char_traitsIcESaIcEEEE11level_names, i64 0, i64 %8
  %10 = load ptr, ptr %9, align 8
  %11 = tail call noundef ptr @_ZNKSt7__cxx1112basic_stringIcSt11char_traitsIcESaIcEE5c_strEv(ptr noundef nonnull align 8 dereferenceable(32) %3) #16
  %12 = tail call i32 (ptr, ptr, ...) @fprintf(ptr noundef %7, ptr noundef nonnull @.str.13, ptr noundef %10, ptr noundef %1, i32 noundef %2, ptr noundef %11) #18
  %13 = load ptr, ptr @stderr, align 8
  %14 = tail call i32 @fflush(ptr noundef %13)
  br label %15

15:                                               ; preds = %4, %6
  ret void
}